target datalayout = "e-m:e-p270:32:32-p271:32:32-p272:64:64-i64:64-i128:128-f80:128-n8:16:32:64-S128"
target triple = "x86_64-pc-linux-gnu"

%struct.bn_gencb_st = type { i32, ptr, %union.anon }
%union.anon = type { ptr }

; Function Attrs: nounwind uwtable
define i32 @BN_GENCB_call(ptr noundef %0, i32 noundef %1, i32 noundef %2) #0 {
  %4 = alloca i32, align 4
  %5 = alloca ptr, align 8
  %6 = alloca i32, align 4
  %7 = alloca i32, align 4
  store ptr %0, ptr %5, align 8, !tbaa !3
  store i32 %1, ptr %6, align 4, !tbaa !8
  store i32 %2, ptr %7, align 4, !tbaa !8
  %8 = load ptr, ptr %5, align 8, !tbaa !3
  %9 = icmp ne ptr %8, null
  br i1 %9, label %11, label %10

10:                                               ; preds = %3
  store i32 1, ptr %4, align 4
  br label %40

11:                                               ; preds = %3
  %12 = load ptr, ptr %5, align 8, !tbaa !3
  %13 = getelementptr inbounds nuw %struct.bn_gencb_st, ptr %12, i32 0, i32 0
  %14 = load i32, ptr %13, align 8, !tbaa !10
  switch i32 %14, label %38 [
    i32 1, label %15
    i32 2, label %30
  ]

15:                                               ; preds = %11
  %16 = load ptr, ptr %5, align 8, !tbaa !3
  %17 = getelementptr inbounds nuw %struct.bn_gencb_st, ptr %16, i32 0, i32 2
  %18 = load ptr, ptr %17, align 8, !tbaa !12
  %19 = icmp ne ptr %18, null
  br i1 %19, label %21, label %20

20:                                               ; preds = %15
  store i32 1, ptr %4, align 4
  br label %40

21:                                               ; preds = %15
  %22 = load ptr, ptr %5, align 8, !tbaa !3
  %23 = getelementptr inbounds nuw %struct.bn_gencb_st, ptr %22, i32 0, i32 2
  %24 = load ptr, ptr %23, align 8, !tbaa !12
  %25 = load i32, ptr %6, align 4, !tbaa !8
  %26 = load i32, ptr %7, align 4, !tbaa !8
  %27 = load ptr, ptr %5, align 8, !tbaa !3
  %28 = getelementptr inbounds nuw %struct.bn_gencb_st, ptr %27, i32 0, i32 1
  %29 = load ptr, ptr %28, align 8, !tbaa !13
  call void %24(i32 noundef %25, i32 noundef %26, ptr noundef %29)
  store i32 1, ptr %4, align 4
  br label %40

30:                                               ; preds = %11
  %31 = load ptr, ptr %5, align 8, !tbaa !3
  %32 = getelementptr inbounds nuw %struct.bn_gencb_st, ptr %31, i32 0, i32 2
  %33 = load ptr, ptr %32, align 8, !tbaa !12
  %34 = load i32, ptr %6, align 4, !tbaa !8
  %35 = load i32, ptr %7, align 4, !tbaa !8
  %36 = load ptr, ptr %5, align 8, !tbaa !3
  %37 = call i32 %33(i32 noundef %34, i32 noundef %35, ptr noundef %36)
  store i32 %37, ptr %4, align 4
  br label %40

38:                                               ; preds = %11
  br label %39

39:                                               ; preds = %38
  store i32 0, ptr %4, align 4
  br label %40

40:                                               ; preds = %39, %30, %21, %20, %10
  %41 = load i32, ptr %4, align 4
  ret i32 %41
}