; Function Attrs: nounwind uwtable
define i32 @BN_GENCB_call(ptr noundef %0, i32 noundef %1, i32 noundef %2) local_unnamed_addr #1 {
  %.not = icmp eq ptr %0, null
  br i1 %.not, label %16, label %4

4:                                                ; preds = %3
  %5 = load i32, ptr %0, align 8, !tbaa !3
  switch i32 %5, label %16 [
    i32 1, label %6
    i32 2, label %12
  ]

6:                                                ; preds = %4
  %7 = getelementptr inbounds nuw i8, ptr %0, i64 16
  %8 = load ptr, ptr %7, align 8, !tbaa !9
  %.not13 = icmp eq ptr %8, null
  br i1 %.not13, label %16, label %9

9:                                                ; preds = %6
  %10 = getelementptr inbounds nuw i8, ptr %0, i64 8
  %11 = load ptr, ptr %10, align 8, !tbaa !10
  tail call void %8(i32 noundef %1, i32 noundef %2, ptr noundef %11) #5
  br label %16

12:                                               ; preds = %4
  %13 = getelementptr inbounds nuw i8, ptr %0, i64 16
  %14 = load ptr, ptr %13, align 8, !tbaa !9
  %15 = tail call i32 %14(i32 noundef %1, i32 noundef %2, ptr noundef nonnull %0) #5
  br label %16

16:                                               ; preds = %4, %6, %3, %12, %9
  %.0 = phi i32 [ %15, %12 ], [ 1, %9 ], [ 1, %3 ], [ 1, %6 ], [ 0, %4 ]
  ret i32 %.0
}